; Function Attrs: nounwind uwtable
define internal fastcc void @_jumbleClosePortalStmt(ptr noundef captures(none) %0, ptr readonly captures(address_is_null) %.8.val) unnamed_addr #0 {
  %.not = icmp eq ptr %.8.val, null
  br i1 %.not, label %18, label %2

2:                                                ; preds = %1
  %3 = tail call i64 @strlen(ptr noundef nonnull dereferenceable(1) %.8.val) #8
  %4 = add i64 %3, 1
  %5 = load ptr, ptr %0, align 8
  %6 = getelementptr inbounds nuw i8, ptr %0, i64 8
  %7 = load i64, ptr %6, align 8
  %.not23.i = icmp eq i64 %4, 0
  br i1 %.not23.i, label %AppendJumble.exit, label %.lr.ph.i

.lr.ph.i:                                         ; preds = %2, %11
  %.026.i = phi ptr [ %16, %11 ], [ %.8.val, %2 ]
  %.02125.i = phi i64 [ %17, %11 ], [ %4, %2 ]
  %.02224.i = phi i64 [ %15, %11 ], [ %7, %2 ]
  %8 = icmp ugt i64 %.02224.i, 1023
  br i1 %8, label %9, label %11

9:                                                ; preds = %.lr.ph.i
  %10 = tail call i64 @hash_bytes_extended(ptr noundef %5, i32 noundef 1024, i64 noundef 0) #9
  store i64 %10, ptr %5, align 1
  br label %11

11:                                               ; preds = %9, %.lr.ph.i
  %.1.i = phi i64 [ 8, %9 ], [ %.02224.i, %.lr.ph.i ]
  %12 = sub nuw nsw i64 1024, %.1.i
  %13 = tail call i64 @llvm.umin.i64(i64 %.02125.i, i64 %12)
  %14 = getelementptr inbounds nuw i8, ptr %5, i64 %.1.i
  tail call void @llvm.memcpy.p0.p0.i64(ptr noundef nonnull align 1 dereferenceable(1) %14, ptr noundef nonnull align 1 dereferenceable(1) %.026.i, i64 %13, i1 false)
  %15 = add nuw nsw i64 %13, %.1.i
  %16 = getelementptr inbounds nuw i8, ptr %.026.i, i64 %13
  %17 = sub i64 %.02125.i, %13
  %.not.i = icmp eq i64 %17, 0
  br i1 %.not.i, label %AppendJumble.exit, label %.lr.ph.i, !llvm.loop !7

AppendJumble.exit:                                ; preds = %11, %2
  %.022.lcssa.i = phi i64 [ %7, %2 ], [ %15, %11 ]
  store i64 %.022.lcssa.i, ptr %6, align 8
  br label %18

18:                                               ; preds = %AppendJumble.exit, %1
  ret void
}